; Function Attrs: mustprogress uwtable
define void @_ZN8proxygen17HTTPParallelCodec23enableDoubleGoawayDrainEv(ptr nocapture noundef nonnull align 8 dereferenceable(92) %this) unnamed_addr #3 align 2 personality ptr @__gxx_personality_v0 {
entry:
  %ref.tmp7 = alloca %"class.google::LogMessage", align 8
  %sessionClosing_ = getelementptr inbounds i8, ptr %this, i64 88
  %0 = load i32, ptr %sessionClosing_, align 8
  %cmp = icmp eq i32 %0, 0
  br i1 %cmp, label %if.then, label %if.else

if.then:                                          ; preds = %entry
  store i32 1, ptr %sessionClosing_, align 8
  br label %if.end

if.else:                                          ; preds = %entry
  %1 = load ptr, ptr @_ZZN8proxygen17HTTPParallelCodec23enableDoubleGoawayDrainEvE8vlocal__, align 8
  %cmp3 = icmp eq ptr %1, null
  br i1 %cmp3, label %cond.true, label %cond.end

cond.true:                                        ; preds = %if.else
  %call = tail call noundef zeroext i1 @_ZN6google11InitVLOG3__EPNS_8SiteFlagEPiPKci(ptr noundef nonnull @_ZZN8proxygen17HTTPParallelCodec23enableDoubleGoawayDrainEvE8vlocal__, ptr noundef nonnull @_ZN3fLI7FLAGS_vE, ptr noundef nonnull @.str, i32 noundef 3)
  br i1 %call, label %cond.false6, label %if.end

cond.end:                                         ; preds = %if.else
  %2 = load i32, ptr %1, align 4
  %cmp4 = icmp sgt i32 %2, 2
  br i1 %cmp4, label %cond.false6, label %if.end

cond.false6:                                      ; preds = %cond.true, %cond.end
  call void @_ZN6google10LogMessageC1EPKci(ptr noundef nonnull align 8 dereferenceable(96) %ref.tmp7, ptr noundef nonnull @.str, i32 noundef 56)
  %call8 = invoke noundef nonnull align 8 dereferenceable(8) ptr @_ZN6google10LogMessage6streamEv(ptr noundef nonnull align 8 dereferenceable(96) %ref.tmp7)
          to label %invoke.cont unwind label %lpad

invoke.cont:                                      ; preds = %cond.false6
  %call10 = invoke noundef nonnull align 8 dereferenceable(8) ptr @_ZStlsISt11char_traitsIcEERSt13basic_ostreamIcT_ES5_PKc(ptr noundef nonnull align 8 dereferenceable(8) %call8, ptr noundef nonnull @.str.2)
          to label %cleanup.action unwind label %lpad

cleanup.action:                                   ; preds = %invoke.cont
  call void @_ZN6google10LogMessageD1Ev(ptr noundef nonnull align 8 dereferenceable(96) %ref.tmp7) #12
  br label %if.end

lpad:                                             ; preds = %invoke.cont, %cond.false6
  %3 = landingpad { ptr, i32 }
          cleanup
  call void @_ZN6google10LogMessageD1Ev(ptr noundef nonnull align 8 dereferenceable(96) %ref.tmp7) #12
  resume { ptr, i32 } %3

if.end:                                           ; preds = %cond.true, %cond.end, %cleanup.action, %if.then
  ret void
}